target datalayout = "e-m:e-p270:32:32-p271:32:32-p272:64:64-i64:64-i128:128-f80:128-n8:16:32:64-S128"
target triple = "x86_64-pc-linux-gnu"

; Function Attrs: inlinehint mustprogress uwtable
define linkonce_odr hidden noundef zeroext i1 @_ZNK2cv4cuda10DeviceInfo8supportsENS0_10FeatureSetE(ptr noundef nonnull align 4 dereferenceable(4) %0, i32 noundef %1) #7 comdat align 2 {
  %3 = alloca ptr, align 8
  %4 = alloca i32, align 4
  %5 = alloca i32, align 4
  store ptr %0, ptr %3, align 8, !tbaa !74
  store i32 %1, ptr %4, align 4, !tbaa !76
  %6 = load ptr, ptr %3, align 8
  call void @llvm.lifetime.start.p0(i64 4, ptr %5) #3
  %7 = call noundef i32 @_ZNK2cv4cuda10DeviceInfo12majorVersionEv(ptr noundef nonnull align 4 dereferenceable(4) %6)
  %8 = mul nsw i32 %7, 10
  %9 = call noundef i32 @_ZNK2cv4cuda10DeviceInfo12minorVersionEv(ptr noundef nonnull align 4 dereferenceable(4) %6)
  %10 = add nsw i32 %8, %9
  store i32 %10, ptr %5, align 4, !tbaa !8
  %11 = load i32, ptr %5, align 4, !tbaa !8
  %12 = load i32, ptr %4, align 4, !tbaa !76
  %13 = icmp sge i32 %11, %12
  call void @llvm.lifetime.end.p0(i64 4, ptr %5) #3
  ret i1 %13
}

; Function Attrs: mustprogress uwtable
define hidden noundef zeroext i1 @_ZN6cvtest14supportFeatureERKN2cv4cuda10DeviceInfoENS1_10FeatureSetE(ptr noundef nonnull align 4 dereferenceable(4) %0, i32 noundef %1) #6 {
  %3 = alloca ptr, align 8
  %4 = alloca i32, align 4
  store ptr %0, ptr %3, align 8, !tbaa !74
  store i32 %1, ptr %4, align 4, !tbaa !76
  %5 = load i32, ptr %4, align 4, !tbaa !76
  %6 = call noundef zeroext i1 @_ZN2cv4cuda11TargetArchs9builtWithENS0_10FeatureSetE(i32 noundef %5)
  br i1 %6, label %7, label %11

7:                                                ; preds = %2
  %8 = load ptr, ptr %3, align 8, !tbaa !74
  %9 = load i32, ptr %4, align 4, !tbaa !76
  %10 = call noundef zeroext i1 @_ZNK2cv4cuda10DeviceInfo8supportsENS0_10FeatureSetE(ptr noundef nonnull align 4 dereferenceable(4) %8, i32 noundef %9)
  br label %11

11:                                               ; preds = %7, %2
  %12 = phi i1 [ false, %2 ], [ %10, %7 ]
  ret i1 %12
}