; Function Attrs: mustprogress uwtable
define hidden noundef zeroext i1 @_ZN6cvtest14supportFeatureERKN2cv4cuda10DeviceInfoENS1_10FeatureSetE(ptr noundef nonnull align 4 dereferenceable(4) %0, i32 noundef %1) local_unnamed_addr #4 {
  %3 = tail call noundef zeroext i1 @_ZN2cv4cuda11TargetArchs9builtWithENS0_10FeatureSetE(i32 noundef %1)
  br i1 %3, label %4, label %10

4:                                                ; preds = %2
  %5 = tail call noundef i32 @_ZNK2cv4cuda10DeviceInfo12majorVersionEv(ptr noundef nonnull align 4 dereferenceable(4) %0)
  %6 = mul nsw i32 %5, 10
  %7 = tail call noundef i32 @_ZNK2cv4cuda10DeviceInfo12minorVersionEv(ptr noundef nonnull align 4 dereferenceable(4) %0)
  %8 = add nsw i32 %6, %7
  %9 = icmp sge i32 %8, %1
  br label %10

10:                                               ; preds = %4, %2
  %11 = phi i1 [ false, %2 ], [ %9, %4 ]
  ret i1 %11
}